target datalayout = "e-m:e-p270:32:32-p271:32:32-p272:64:64-i64:64-i128:128-f80:128-n8:16:32:64-S128"
target triple = "x86_64-pc-linux-gnu"

%"struct.vcpkg::DependencyConstraint" = type { i32, [4 x i8], %"struct.vcpkg::Version" }
%"struct.vcpkg::Version" = type <{ %"class.std::__cxx11::basic_string", i32, [4 x i8] }>
%"class.std::__cxx11::basic_string" = type { %"struct.std::__cxx11::basic_string<char>::_Alloc_hider", i64, %union.anon }
%"struct.std::__cxx11::basic_string<char>::_Alloc_hider" = type { ptr }
%union.anon = type { i64, [8 x i8] }

; Function Attrs: mustprogress nounwind uwtable
define dso_local noundef zeroext i1 @_ZN5vcpkgeqERKNS_20DependencyConstraintES2_(ptr noundef nonnull align 8 dereferenceable(48) %0, ptr noundef nonnull align 8 dereferenceable(48) %1) #0 {
  %3 = alloca i1, align 1
  %4 = alloca ptr, align 8
  %5 = alloca ptr, align 8
  store ptr %0, ptr %4, align 8, !tbaa !4
  store ptr %1, ptr %5, align 8, !tbaa !4
  %6 = load ptr, ptr %4, align 8, !tbaa !4
  %7 = getelementptr inbounds nuw %"struct.vcpkg::DependencyConstraint", ptr %6, i32 0, i32 0
  %8 = load i32, ptr %7, align 8, !tbaa !9
  %9 = load ptr, ptr %5, align 8, !tbaa !4
  %10 = getelementptr inbounds nuw %"struct.vcpkg::DependencyConstraint", ptr %9, i32 0, i32 0
  %11 = load i32, ptr %10, align 8, !tbaa !9
  %12 = icmp ne i32 %8, %11
  br i1 %12, label %13, label %14

13:                                               ; preds = %2
  store i1 false, ptr %3, align 1
  br label %20

14:                                               ; preds = %2
  %15 = load ptr, ptr %4, align 8, !tbaa !4
  %16 = getelementptr inbounds nuw %"struct.vcpkg::DependencyConstraint", ptr %15, i32 0, i32 2
  %17 = load ptr, ptr %5, align 8, !tbaa !4
  %18 = getelementptr inbounds nuw %"struct.vcpkg::DependencyConstraint", ptr %17, i32 0, i32 2
  %19 = call noundef zeroext i1 @_ZN5vcpkgeqERKNS_7VersionES2_(ptr noundef nonnull align 8 dereferenceable(36) %16, ptr noundef nonnull align 8 dereferenceable(36) %18) #19
  store i1 %19, ptr %3, align 1
  br label %20

20:                                               ; preds = %14, %13
  %21 = load i1, ptr %3, align 1
  ret i1 %21
}