; Function Attrs: mustprogress nounwind uwtable
define dso_local noundef zeroext i1 @_ZN5vcpkgeqERKNS_20DependencyConstraintES2_(ptr noundef nonnull align 8 dereferenceable(48) %0, ptr noundef nonnull align 8 dereferenceable(48) %1) local_unnamed_addr #0 {
  %3 = load i32, ptr %0, align 8, !tbaa !4
  %4 = load i32, ptr %1, align 8, !tbaa !4
  %.not = icmp eq i32 %3, %4
  br i1 %.not, label %5, label %9

5:                                                ; preds = %2
  %6 = getelementptr inbounds nuw i8, ptr %0, i64 8
  %7 = getelementptr inbounds nuw i8, ptr %1, i64 8
  %8 = tail call noundef zeroext i1 @_ZN5vcpkgeqERKNS_7VersionES2_(ptr noundef nonnull align 8 dereferenceable(36) %6, ptr noundef nonnull align 8 dereferenceable(36) %7) #23
  br label %9

9:                                                ; preds = %2, %5
  %.0 = phi i1 [ %8, %5 ], [ false, %2 ]
  ret i1 %.0
}